; Function Attrs: mustprogress uwtable
define noundef zeroext i1 @_ZNK6google8protobuf11MessageLite18SerializeToOstreamEPSo(ptr noundef nonnull align 8 dereferenceable(16) %this, ptr noundef %output) local_unnamed_addr #3 align 2 personality ptr @__gxx_personality_v0 {
entry:
  %zero_copy_output = alloca %"class.google::protobuf::io::OstreamOutputStream", align 8
  call void @_ZN6google8protobuf2io19OstreamOutputStreamC1EPSoi(ptr noundef nonnull align 8 dereferenceable(72) %zero_copy_output, ptr noundef %output, i32 noundef -1)
  %call.i2 = invoke noundef zeroext i1 @_ZNK6google8protobuf11MessageLite32SerializePartialToZeroCopyStreamEPNS0_2io20ZeroCopyOutputStreamE(ptr noundef nonnull align 8 dereferenceable(16) %this, ptr noundef nonnull %zero_copy_output)
          to label %cleanup unwind label %lpad

lpad:                                             ; preds = %entry
  %0 = landingpad { ptr, i32 }
          cleanup
  call void @_ZN6google8protobuf2io19OstreamOutputStreamD1Ev(ptr noundef nonnull align 8 dereferenceable(72) %zero_copy_output) #20
  resume { ptr, i32 } %0

cleanup:                                          ; preds = %entry
  call void @_ZN6google8protobuf2io19OstreamOutputStreamD1Ev(ptr noundef nonnull align 8 dereferenceable(72) %zero_copy_output) #20
  br i1 %call.i2, label %cleanup.cont, label %return

cleanup.cont:                                     ; preds = %cleanup
  %vtable = load ptr, ptr %output, align 8
  %vbase.offset.ptr = getelementptr i8, ptr %vtable, i64 -24
  %vbase.offset = load i64, ptr %vbase.offset.ptr, align 8
  %add.ptr = getelementptr inbounds i8, ptr %output, i64 %vbase.offset
  %call2 = call noundef zeroext i1 @_ZNKSt9basic_iosIcSt11char_traitsIcEE4goodEv(ptr noundef nonnull align 8 dereferenceable(264) %add.ptr)
  br label %return

return:                                           ; preds = %cleanup, %cleanup.cont
  %retval.1 = phi i1 [ false, %cleanup ], [ %call2, %cleanup.cont ]
  ret i1 %retval.1
}